Certificate:
    Data:
        Version: 3 (0x2)
        Serial Number: 81639539740 (0x130218841c)
    Signature Algorithm: sha1WithRSAEncryption
        Issuer: CN=f5-L3, ST=beijing, C=CN/emailAddress=zongzhaowei-2002@163.com, O=f5-L3, OU=pd-L3
        Validity
            Not Before: Aug 24 07:27:24 2018 GMT
            Not After : Aug 24 07:27:24 2019 GMT
        Subject: CN=localhost.s1, ST=beijing, C=CN/emailAddress=zongzhaowei-2002@163.com, O=f5-local.s1, OU=pd-local.s1
        Subject Public Key Info:
            Public Key Algorithm: rsaEncryption
                Public-Key: (2048 bit)
                Modulus:
                    00:f0:1d:cd:8b:69:8e:93:30:bb:58:b0:31:66:97:
                    4f:e5:8a:8a:b3:b7:6a:67:eb:6b:6f:b7:8a:11:7e:
                    7c:11:50:59:42:4f:54:c9:78:3e:1b:48:55:df:6c:
                    ed:f7:ee:e5:90:1e:43:8f:58:fe:1c:8e:d9:38:20:
                    62:a5:0b:c2:cf:08:d1:eb:c9:b5:47:c9:7c:c4:7b:
                    0b:c7:61:4c:cd:ea:6a:5f:b3:ee:ab:b2:b7:6a:24:
                    25:c6:9b:3d:29:f8:f2:f2:68:15:e6:5e:5a:e3:1f:
                    1e:01:fb:05:4d:4d:90:33:76:4e:8b:35:36:1a:41:
                    bb:eb:ba:c8:fc:10:2e:54:d0:a9:4a:c0:aa:24:26:
                    9c:df:81:04:f9:4c:2a:f1:9a:18:d3:db:4c:70:62:
                    99:98:4c:a3:73:87:4e:bc:54:e7:b0:55:f8:a2:3a:
                    61:ad:b4:6e:c0:5c:93:b8:69:c6:26:1c:be:c8:a7:
                    8b:7f:d4:a6:44:2c:31:1b:be:ba:c6:a7:88:ab:d3:
                    da:44:df:28:8c:b9:5b:46:54:4a:94:e8:e3:ed:dd:
                    39:47:da:bb:46:db:5e:7d:b0:45:bc:c4:12:12:ff:
                    c1:17:de:38:a4:6f:53:3c:10:fe:eb:48:13:99:38:
                    18:89:63:33:b2:2e:17:34:55:69:d7:01:80:6c:7d:
                    91:b3
                Exponent: 65537 (0x10001)
        X509v3 extensions:
            X509v3 Basic Constraints: 
                CA:FALSE
    Signature Algorithm: sha1WithRSAEncryption
         90:99:7e:c5:56:9a:52:f1:9c:90:34:06:ad:b3:ec:8e:1a:8d:
         0e:6e:e3:de:2a:9f:6a:73:9f:7c:fe:d9:a8:9d:95:32:ed:9e:
         7d:88:84:0a:4f:53:29:c2:18:da:1c:fb:50:1e:81:00:be:f8:
         ba:28:b6:ae:1e:5f:a9:ac:da:c5:84:89:61:f9:a8:82:bc:77:
         9c:80:4c:de:0a:f6:71:a6:03:c6:55:f7:d0:81:47:ef:18:cb:
         29:b0:4b:f4:2a:5a:29:26:3e:0f:ca:51:df:55:46:54:e8:8b:
         4a:c6:09:62:09:9d:42:f1:56:55:a2:e9:b3:2c:22:cb:95:6a:
         ad:fa:b9:59:05:c5:a0:95:19:52:ca:81:5c:7e:a4:54:c6:6f:
         3c:c1:de:0a:7b:cd:5e:9d:ef:96:75:75:dd:c0:ee:64:6c:50:
         6e:6b:3f:b5:1d:f6:56:1e:5f:7b:50:bd:a2:6a:72:04:17:47:
         cf:73:39:29:80:61:b8:b0:66:1f:41:54:0b:47:d0:54:b6:0a:
         c3:63:c1:31:80:09:3d:20:00:4c:45:99:9c:44:7f:eb:ce:06:
         dd:10:19:84:ee:35:49:bf:78:4d:ac:eb:25:34:1f:c4:15:06:
         9a:2f:6f:53:01:60:71:94:9e:e8:0e:20:5c:e6:25:9a:6f:1d:
         1d:6e:f5:e1
-----BEGIN CERTIFICATE-----
MIIDkDCCAnigAwIBAgIFEwIYhBwwDQYJKoZIhvcNAQEFBQAweDEOMAwGA1UEAwwF
ZjUtTDMxEDAOBgNVBAgMB2JlaWppbmcxCzAJBgNVBAYTAkNOMScwJQYJKoZIhvcN
AQkBFhh6b25nemhhb3dlaS0yMDAyQDE2My5jb20xDjAMBgNVBAoMBWY1LUwzMQ4w
DAYDVQQLDAVwZC1MMzAeFw0xODA4MjQwNzI3MjRaFw0xOTA4MjQwNzI3MjRaMIGL
MRUwEwYDVQQDDAxsb2NhbGhvc3QuczExEDAOBgNVBAgMB2JlaWppbmcxCzAJBgNV
BAYTAkNOMScwJQYJKoZIhvcNAQkBFhh6b25nemhhb3dlaS0yMDAyQDE2My5jb20x
FDASBgNVBAoMC2Y1LWxvY2FsLnMxMRQwEgYDVQQLDAtwZC1sb2NhbC5zMTCCASIw
DQYJKoZIhvcNAQEBBQADggEPADCCAQoCggEBAPAdzYtpjpMwu1iwMWaXT+WKirO3
amfra2+3ihF+fBFQWUJPVMl4PhtIVd9s7ffu5ZAeQ49Y/hyO2TggYqULws8I0evJ
tUfJfMR7C8dhTM3qal+z7quyt2okJcabPSn48vJoFeZeWuMfHgH7BU1NkDN2Tos1
NhpBu+u6yPwQLlTQqUrAqiQmnN+BBPlMKvGaGNPbTHBimZhMo3OHTrxU57BV+KI6
Ya20bsBck7hpxiYcvsini3/UpkQsMRu+usaniKvT2kTfKIy5W0ZUSpTo4+3dOUfa
u0bbXn2wRbzEEhL/wRfeOKRvUzwQ/utIE5k4GIljM7IuFzRVadcBgGx9kbMCAwEA
AaMNMAswCQYDVR0TBAIwADANBgkqhkiG9w0BAQUFAAOCAQEAkJl+xVaaUvGckDQG
rbPsjhqNDm7j3iqfanOffP7ZqJ2VMu2efYiECk9TKcIY2hz7UB6BAL74uii2rh5f
qazaxYSJYfmogrx3nIBM3gr2caYDxlX30IFH7xjLKbBL9CpaKSY+D8pR31VGVOiL
SsYJYgmdQvFWVaLpsywiy5Vqrfq5WQXFoJUZUsqBXH6kVMZvPMHeCnvNXp3vlnV1
3cDuZGxQbms/tR32Vh5fe1C9ompyBBdHz3M5KYBhuLBmH0FUC0fQVLYKw2PBMYAJ
PSAATEWZnER/684G3RAZhO41Sb94TazrJTQfxBUGmi9vUwFgcZSe6A4gXOYlmm8d
HW714Q==
-----END CERTIFICATE-----
