Certificate:
    Data:
        Version: 3 (0x2)
        Serial Number: 81639539734 (0x1302188416)
    Signature Algorithm: sha1WithRSAEncryption
        Issuer: CN=Zong CA, ST=Beijing, C=CN/emailAddress=a.zong@f5.com, O=Zong Root Certification Authority
        Validity
            Not Before: Aug 24 07:26:59 2018 GMT
            Not After : Aug 24 07:26:59 2019 GMT
        Subject: CN=f5-L1, ST=beijing, C=CN/emailAddress=zongzhaowei-2002@163.com, O=f5-L1, OU=pd-L1
        Subject Public Key Info:
            Public Key Algorithm: rsaEncryption
                Public-Key: (2048 bit)
                Modulus:
                    00:b8:c8:dc:3a:52:78:ba:e9:28:17:ac:e0:2f:8d:
                    ff:df:a4:84:ab:3a:41:f1:07:e8:2a:78:7d:fa:7e:
                    09:e0:a9:71:e8:db:37:5c:c2:23:3d:30:40:6f:67:
                    7b:a9:2e:37:46:2d:2e:0e:c8:9f:1b:30:ad:cf:b9:
                    91:68:4d:e8:a6:aa:b6:86:ab:a1:e2:f8:87:7a:1f:
                    5a:06:7b:ae:b2:4b:36:47:17:3d:83:28:6e:9e:ce:
                    4f:40:2e:d3:75:e7:48:c7:98:5d:57:ce:30:e0:ce:
                    99:f3:37:49:21:13:b0:32:23:ee:12:77:e8:10:31:
                    e8:8e:08:54:2e:ac:8c:f4:bf:20:51:f8:54:ec:1a:
                    55:77:4a:98:c3:a5:13:58:5e:3c:0b:18:bf:d8:27:
                    f7:30:98:dd:b3:53:a4:33:ef:c0:46:f4:3b:f2:b2:
                    0f:49:ff:9c:7d:89:6a:02:e0:e8:c0:88:b7:85:58:
                    fc:6f:9d:da:5b:ca:3d:71:ad:86:d4:87:37:1e:e7:
                    3b:8d:87:23:65:29:08:46:43:40:28:5d:d2:e3:a5:
                    d9:a8:9d:05:1d:3c:b9:26:93:63:2c:2e:a7:12:2b:
                    dc:7c:49:30:91:9c:8d:fe:3b:65:d0:78:f5:7e:2f:
                    08:58:ef:b9:47:69:d7:cb:e2:fa:65:07:30:c6:41:
                    e8:33
                Exponent: 65537 (0x10001)
        X509v3 extensions:
            X509v3 Basic Constraints: 
                CA:TRUE
    Signature Algorithm: sha1WithRSAEncryption
         6e:4d:88:1a:90:2f:3b:b3:48:b2:ab:07:1a:4b:bd:1a:d4:4b:
         2e:5b:b4:e0:63:fc:65:8d:2c:82:b7:aa:c5:2f:f6:9e:47:dc:
         d2:b3:ad:a0:b1:58:f9:f4:4a:54:ad:a5:d6:09:83:c3:b1:19:
         21:bd:92:f3:53:b1:80:79:89:23:50:61:84:34:72:18:19:59:
         a2:92:df:a6:a8:05:aa:23:53:bc:79:e4:56:e3:77:59:e4:99:
         bf:d0:a5:9d:87:fd:05:33:cd:a9:5e:af:ec:5d:7b:9e:2d:82:
         ce:2d:5a:57:c1:23:23:28:a5:ec:f0:71:78:bb:11:d5:73:62:
         d9:cb:84:4a:5d:69:f1:07:cb:0d:3f:29:61:ca:23:a1:77:ee:
         80:fc:d9:03:3a:3e:24:d4:d9:6b:8c:f6:71:56:7b:99:0b:41:
         e6:e1:93:2a:1b:1b:df:dc:02:f1:a1:97:db:0e:c7:f9:26:b3:
         c4:78:6a:4d:8f:c5:fb:d1:e0:e8:5a:46:e3:8d:c8:71:d1:c4:
         2d:e2:21:7e:db:46:24:0f:54:22:46:25:0f:fe:e4:97:85:6f:
         e4:56:f9:77:a8:f1:0f:67:2c:e4:fd:11:90:fd:de:ea:93:6a:
         63:12:17:5a:4c:27:36:82:f8:65:d3:8f:93:75:62:71:77:fe:
         13:13:c9:b5
-----BEGIN CERTIFICATE-----
MIIDgjCCAmqgAwIBAgIFEwIYhBYwDQYJKoZIhvcNAQEFBQAwezEQMA4GA1UEAwwH
Wm9uZyBDQTEQMA4GA1UECAwHQmVpamluZzELMAkGA1UEBhMCQ04xHDAaBgkqhkiG
9w0BCQEWDWEuem9uZ0BmNS5jb20xKjAoBgNVBAoMIVpvbmcgUm9vdCBDZXJ0aWZp
Y2F0aW9uIEF1dGhvcml0eTAeFw0xODA4MjQwNzI2NTlaFw0xOTA4MjQwNzI2NTla
MHgxDjAMBgNVBAMMBWY1LUwxMRAwDgYDVQQIDAdiZWlqaW5nMQswCQYDVQQGEwJD
TjEnMCUGCSqGSIb3DQEJARYYem9uZ3poYW93ZWktMjAwMkAxNjMuY29tMQ4wDAYD
VQQKDAVmNS1MMTEOMAwGA1UECwwFcGQtTDEwggEiMA0GCSqGSIb3DQEBAQUAA4IB
DwAwggEKAoIBAQC4yNw6Uni66SgXrOAvjf/fpISrOkHxB+gqeH36fgngqXHo2zdc
wiM9MEBvZ3upLjdGLS4OyJ8bMK3PuZFoTeimqraGq6Hi+Id6H1oGe66ySzZHFz2D
KG6ezk9ALtN150jHmF1XzjDgzpnzN0khE7AyI+4Sd+gQMeiOCFQurIz0vyBR+FTs
GlV3SpjDpRNYXjwLGL/YJ/cwmN2zU6Qz78BG9Dvysg9J/5x9iWoC4OjAiLeFWPxv
ndpbyj1xrYbUhzce5zuNhyNlKQhGQ0AoXdLjpdmonQUdPLkmk2MsLqcSK9x8STCR
nI3+O2XQePV+LwhY77lHadfL4vplBzDGQegzAgMBAAGjEDAOMAwGA1UdEwQFMAMB
Af8wDQYJKoZIhvcNAQEFBQADggEBAG5NiBqQLzuzSLKrBxpLvRrUSy5btOBj/GWN
LIK3qsUv9p5H3NKzraCxWPn0SlStpdYJg8OxGSG9kvNTsYB5iSNQYYQ0chgZWaKS
36aoBaojU7x55Fbjd1nkmb/QpZ2H/QUzzaler+xde54tgs4tWlfBIyMopezwcXi7
EdVzYtnLhEpdafEHyw0/KWHKI6F37oD82QM6PiTU2WuM9nFWe5kLQebhkyobG9/c
AvGhl9sOx/kms8R4ak2PxfvR4OhaRuONyHHRxC3iIX7bRiQPVCJGJQ/+5JeFb+RW
+Xeo8Q9nLOT9EZD93uqTamMSF1pMJzaC+GXTj5N1YnF3/hMTybU=
-----END CERTIFICATE-----
