Certificate:
    Data:
        Version: 3 (0x2)
        Serial Number: 81639539735 (0x1302188417)
    Signature Algorithm: sha1WithRSAEncryption
        Issuer: CN=f5-L1, ST=beijing, C=CN/emailAddress=zongzhaowei-2002@163.com, O=f5-L1, OU=pd-L1
        Validity
            Not Before: Aug 24 07:27:05 2018 GMT
            Not After : Aug 24 07:27:05 2019 GMT
        Subject: CN=f5-L2, ST=beijing, C=CN/emailAddress=zongzhaowei-2002@163.com, O=f5-L2, OU=pd-L2
        Subject Public Key Info:
            Public Key Algorithm: rsaEncryption
                Public-Key: (2048 bit)
                Modulus:
                    00:c1:79:a8:b8:be:4f:42:5c:0b:cf:73:99:b0:12:
                    8e:82:c3:b0:4c:9e:2b:75:f0:d8:d2:4c:7b:8e:e2:
                    43:f1:3d:90:c9:17:3b:be:a5:1b:9d:10:17:38:4b:
                    16:32:03:18:42:b0:ff:ea:75:84:4e:20:4f:bb:1f:
                    ab:a5:19:8d:ae:bb:5f:b1:12:bf:2c:4d:30:db:cb:
                    65:72:1b:fa:4b:40:bc:d7:cb:fe:c7:72:7b:5f:2f:
                    40:54:bb:84:5a:88:4b:d7:07:3e:5d:77:b4:fc:b2:
                    3b:01:fc:e7:cc:6a:9f:79:7f:ee:56:f8:91:7d:c7:
                    65:20:eb:17:41:23:d9:2d:2d:87:62:91:67:20:31:
                    86:63:05:d2:a1:a3:f6:61:23:44:9e:20:1b:8e:89:
                    a9:d8:6b:0c:2e:4d:40:cf:59:08:d9:88:05:1e:1b:
                    03:cd:bc:ac:3f:57:97:c3:e8:9f:40:e2:64:2e:25:
                    fc:d4:26:8f:1e:53:4a:38:9d:3b:0d:5d:e1:c0:39:
                    0e:2b:61:40:50:ad:d8:eb:95:fd:06:de:06:64:e6:
                    22:0a:8f:0b:7c:3b:1d:57:9c:14:f0:d8:53:44:1c:
                    d8:9a:cd:11:a9:d6:9b:24:9c:4e:eb:78:3d:c0:f1:
                    86:d5:f5:bc:26:5b:90:c2:52:5b:05:cc:91:41:db:
                    df:2b
                Exponent: 65537 (0x10001)
        X509v3 extensions:
            X509v3 Basic Constraints: 
                CA:TRUE
    Signature Algorithm: sha1WithRSAEncryption
         44:2f:1e:ea:c7:c8:5d:0d:0f:fa:c2:54:4e:9c:de:64:69:1c:
         7c:6c:3c:23:ea:8f:15:46:68:d5:84:40:af:7f:59:57:0f:ed:
         bc:11:b6:5e:8f:7c:aa:ca:b6:21:5e:8e:0a:45:2c:3e:44:f5:
         bb:3d:d4:cc:07:3e:9b:ca:d1:85:ba:e8:e8:93:36:e1:6c:2a:
         11:45:d5:ce:87:9f:bd:4a:d5:3e:7e:1e:0b:59:0f:f8:89:d4:
         0a:c9:17:1e:97:c7:cb:c4:bf:fc:46:32:34:3b:35:f9:d6:5c:
         49:12:8f:0e:e2:68:2e:f1:53:4a:b4:92:2b:72:af:9f:27:fb:
         91:80:41:f8:8b:f6:ea:d6:17:90:56:7d:cf:46:9d:28:bb:39:
         2e:5f:ab:79:00:83:31:77:b3:0a:16:e3:d3:b4:ff:ed:9e:d4:
         3f:3a:f9:9d:30:59:01:08:69:e2:6b:0e:bf:29:94:c7:55:ac:
         b7:53:7d:fc:2c:09:96:1e:3e:64:85:92:b0:a9:18:6a:3c:f4:
         93:0a:0f:e0:b9:90:85:d0:fc:32:bc:1a:24:ca:58:ff:f2:81:
         5a:23:9f:bb:a3:9f:ce:da:40:da:45:d3:a2:91:74:80:85:e5:
         55:2d:5e:4d:75:d8:ac:c7:ff:62:a9:e5:dd:2b:94:1a:b4:42:
         66:bb:76:6d
-----BEGIN CERTIFICATE-----
MIIDfzCCAmegAwIBAgIFEwIYhBcwDQYJKoZIhvcNAQEFBQAweDEOMAwGA1UEAwwF
ZjUtTDExEDAOBgNVBAgMB2JlaWppbmcxCzAJBgNVBAYTAkNOMScwJQYJKoZIhvcN
AQkBFhh6b25nemhhb3dlaS0yMDAyQDE2My5jb20xDjAMBgNVBAoMBWY1LUwxMQ4w
DAYDVQQLDAVwZC1MMTAeFw0xODA4MjQwNzI3MDVaFw0xOTA4MjQwNzI3MDVaMHgx
DjAMBgNVBAMMBWY1LUwyMRAwDgYDVQQIDAdiZWlqaW5nMQswCQYDVQQGEwJDTjEn
MCUGCSqGSIb3DQEJARYYem9uZ3poYW93ZWktMjAwMkAxNjMuY29tMQ4wDAYDVQQK
DAVmNS1MMjEOMAwGA1UECwwFcGQtTDIwggEiMA0GCSqGSIb3DQEBAQUAA4IBDwAw
ggEKAoIBAQDBeai4vk9CXAvPc5mwEo6Cw7BMnit18NjSTHuO4kPxPZDJFzu+pRud
EBc4SxYyAxhCsP/qdYROIE+7H6ulGY2uu1+xEr8sTTDby2VyG/pLQLzXy/7Hcntf
L0BUu4RaiEvXBz5dd7T8sjsB/OfMap95f+5W+JF9x2Ug6xdBI9ktLYdikWcgMYZj
BdKho/ZhI0SeIBuOianYawwuTUDPWQjZiAUeGwPNvKw/V5fD6J9A4mQuJfzUJo8e
U0o4nTsNXeHAOQ4rYUBQrdjrlf0G3gZk5iIKjwt8Ox1XnBTw2FNEHNiazRGp1psk
nE7reD3A8YbV9bwmW5DCUlsFzJFB298rAgMBAAGjEDAOMAwGA1UdEwQFMAMBAf8w
DQYJKoZIhvcNAQEFBQADggEBAEQvHurHyF0ND/rCVE6c3mRpHHxsPCPqjxVGaNWE
QK9/WVcP7bwRtl6PfKrKtiFejgpFLD5E9bs91MwHPpvK0YW66OiTNuFsKhFF1c6H
n71K1T5+HgtZD/iJ1ArJFx6Xx8vEv/xGMjQ7NfnWXEkSjw7iaC7xU0q0kityr58n
+5GAQfiL9urWF5BWfc9GnSi7OS5fq3kAgzF3swoW49O0/+2e1D86+Z0wWQEIaeJr
Dr8plMdVrLdTffwsCZYePmSFkrCpGGo89JMKD+C5kIXQ/DK8GiTKWP/ygVojn7uj
n87aQNpF06KRdICF5VUtXk112KzH/2Kp5d0rlBq0Qma7dm0=
-----END CERTIFICATE-----
