Certificate:
    Data:
        Version: 3 (0x2)
        Serial Number: 81639539739 (0x130218841b)
    Signature Algorithm: sha1WithRSAEncryption
        Issuer: CN=f5-L3, ST=beijing, C=CN/emailAddress=zongzhaowei-2002@163.com, O=f5-L3, OU=pd-L3
        Validity
            Not Before: Aug 24 07:27:19 2018 GMT
            Not After : Aug 24 07:27:19 2019 GMT
        Subject: CN=localhost.s2, ST=beijing, C=CN/emailAddress=zongzhaowei-2002@163.com, O=f5-local.s2, OU=pd-local.s2
        Subject Public Key Info:
            Public Key Algorithm: rsaEncryption
                Public-Key: (2048 bit)
                Modulus:
                    00:9b:a7:fd:13:73:0e:f2:ec:cc:fd:9f:c5:3c:c8:
                    74:05:d2:9c:ca:2e:08:a3:93:4e:cc:5e:eb:ca:9c:
                    a2:56:32:ba:7d:d7:e4:6f:f0:85:8d:6b:f1:c8:6e:
                    02:d7:02:45:25:07:3b:b9:c7:c5:f4:a2:1a:33:de:
                    51:55:44:27:52:8e:11:0b:27:ee:a2:cf:97:8f:5e:
                    64:44:bc:c4:21:48:50:d7:28:3b:09:3b:f9:f2:8a:
                    87:a6:31:68:e6:a2:e2:ea:e3:8b:3a:c2:3a:24:34:
                    91:4d:23:2e:d2:7e:3e:06:03:b8:07:6a:df:94:12:
                    ac:56:6b:94:46:a5:8d:0b:e9:12:52:de:f8:5a:19:
                    05:ab:de:a1:60:29:b6:a0:e2:40:aa:7a:f5:90:8c:
                    57:38:18:e5:b0:6d:bc:74:68:cb:bc:05:69:d0:15:
                    a4:a2:11:9b:98:8a:34:bc:3c:d2:47:bb:c5:bc:42:
                    44:68:69:56:9f:d3:5c:39:91:2f:e2:c6:9f:bf:e4:
                    b2:ad:e0:57:78:ba:21:8e:f1:49:38:33:83:53:a3:
                    31:34:66:00:d1:00:1d:73:29:b4:fd:3f:d4:27:bf:
                    8b:98:46:11:0f:67:34:f0:69:25:f0:1d:bd:94:0e:
                    fa:21:dd:48:46:ad:0a:3e:17:07:81:49:77:1d:36:
                    49:8b
                Exponent: 65537 (0x10001)
        X509v3 extensions:
            X509v3 Basic Constraints: 
                CA:FALSE
    Signature Algorithm: sha1WithRSAEncryption
         cc:e3:72:06:b0:73:01:46:4c:7d:6d:68:08:4d:fe:2a:ab:47:
         7d:fc:33:4d:de:d9:d4:f1:15:6d:50:c9:a6:03:7f:17:d1:6c:
         df:2a:d0:0b:8e:f3:db:a4:21:45:f8:25:e4:29:18:c8:c7:7b:
         da:b5:5b:6a:5a:14:57:fb:6d:66:24:10:f8:a9:ae:b8:26:09:
         5a:13:76:72:ae:0d:cd:ce:25:fa:01:bf:c8:0c:3d:2c:87:86:
         8d:0e:8d:bb:30:c5:70:87:7f:56:1b:b3:99:85:fe:0c:e0:84:
         e9:ba:a0:05:69:33:8a:a7:a8:46:38:49:05:c6:a4:4a:9a:14:
         7b:31:27:9c:6b:0e:df:bf:cd:d1:cb:b1:5b:b3:91:1e:41:4b:
         06:2f:25:96:49:f9:6a:3c:5a:38:09:46:e9:0d:d2:d3:51:73:
         5f:33:a8:7f:b5:2b:9e:a3:ff:4a:9a:cb:93:50:69:c4:6e:7d:
         d0:b5:73:12:80:0d:48:98:f4:d6:a3:1c:9a:08:db:e7:cb:b2:
         14:38:8d:8e:34:75:13:60:49:c9:c3:9b:31:e8:f0:c9:1f:81:
         84:db:80:a9:75:c8:42:e3:f4:8b:9a:fb:18:e5:4a:e8:2f:c9:
         d4:44:8f:d2:66:5f:5c:0a:8f:bb:8d:f3:18:6a:6c:77:29:23:
         50:ae:33:4f
-----BEGIN CERTIFICATE-----
MIIDkDCCAnigAwIBAgIFEwIYhBswDQYJKoZIhvcNAQEFBQAweDEOMAwGA1UEAwwF
ZjUtTDMxEDAOBgNVBAgMB2JlaWppbmcxCzAJBgNVBAYTAkNOMScwJQYJKoZIhvcN
AQkBFhh6b25nemhhb3dlaS0yMDAyQDE2My5jb20xDjAMBgNVBAoMBWY1LUwzMQ4w
DAYDVQQLDAVwZC1MMzAeFw0xODA4MjQwNzI3MTlaFw0xOTA4MjQwNzI3MTlaMIGL
MRUwEwYDVQQDDAxsb2NhbGhvc3QuczIxEDAOBgNVBAgMB2JlaWppbmcxCzAJBgNV
BAYTAkNOMScwJQYJKoZIhvcNAQkBFhh6b25nemhhb3dlaS0yMDAyQDE2My5jb20x
FDASBgNVBAoMC2Y1LWxvY2FsLnMyMRQwEgYDVQQLDAtwZC1sb2NhbC5zMjCCASIw
DQYJKoZIhvcNAQEBBQADggEPADCCAQoCggEBAJun/RNzDvLszP2fxTzIdAXSnMou
CKOTTsxe68qcolYyun3X5G/whY1r8chuAtcCRSUHO7nHxfSiGjPeUVVEJ1KOEQsn
7qLPl49eZES8xCFIUNcoOwk7+fKKh6YxaOai4urjizrCOiQ0kU0jLtJ+PgYDuAdq
35QSrFZrlEaljQvpElLe+FoZBaveoWAptqDiQKp69ZCMVzgY5bBtvHRoy7wFadAV
pKIRm5iKNLw80ke7xbxCRGhpVp/TXDmRL+LGn7/ksq3gV3i6IY7xSTgzg1OjMTRm
ANEAHXMptP0/1Ce/i5hGEQ9nNPBpJfAdvZQO+iHdSEatCj4XB4FJdx02SYsCAwEA
AaMNMAswCQYDVR0TBAIwADANBgkqhkiG9w0BAQUFAAOCAQEAzONyBrBzAUZMfW1o
CE3+KqtHffwzTd7Z1PEVbVDJpgN/F9Fs3yrQC47z26QhRfgl5CkYyMd72rVbaloU
V/ttZiQQ+KmuuCYJWhN2cq4Nzc4l+gG/yAw9LIeGjQ6NuzDFcId/VhuzmYX+DOCE
6bqgBWkziqeoRjhJBcakSpoUezEnnGsO37/N0cuxW7ORHkFLBi8llkn5ajxaOAlG
6Q3S01FzXzOof7UrnqP/SprLk1BpxG590LVzEoANSJj01qMcmgjb58uyFDiNjjR1
E2BJycObMejwyR+BhNuAqXXIQuP0i5r7GOVK6C/J1ESP0mZfXAqPu43zGGpsdykj
UK4zTw==
-----END CERTIFICATE-----
