Certificate:
    Data:
        Version: 3 (0x2)
        Serial Number: 81639539736 (0x1302188418)
    Signature Algorithm: sha1WithRSAEncryption
        Issuer: CN=f5-L2, ST=beijing, C=CN/emailAddress=zongzhaowei-2002@163.com, O=f5-L2, OU=pd-L2
        Validity
            Not Before: Aug 24 07:27:08 2018 GMT
            Not After : Aug 24 07:27:08 2019 GMT
        Subject: CN=f5-L3, ST=beijing, C=CN/emailAddress=zongzhaowei-2002@163.com, O=f5-L3, OU=pd-L3
        Subject Public Key Info:
            Public Key Algorithm: rsaEncryption
                Public-Key: (2048 bit)
                Modulus:
                    00:d4:bc:3d:4a:de:b7:86:ab:29:90:d7:57:2a:dd:
                    7b:77:a7:c6:43:13:b2:b1:95:25:a7:87:d3:3f:d0:
                    ef:a2:b4:63:fe:ef:e7:fb:8c:0f:97:43:5c:ab:86:
                    32:95:8e:ff:c6:a8:ed:be:2d:ec:9d:f4:6b:de:b0:
                    21:d4:87:f4:6b:5b:5c:08:20:99:a3:a3:0c:40:71:
                    b5:1d:4d:e2:2d:36:fc:42:3b:5a:3d:4a:2d:ee:65:
                    a1:24:6c:02:0f:b8:d5:b8:73:43:08:0b:95:77:27:
                    87:a7:b0:af:d5:d7:68:f2:5c:20:13:09:52:9e:7a:
                    da:45:2a:68:43:d2:c8:9b:1e:f8:e4:4e:1f:b6:a5:
                    1f:fe:2e:e6:9e:3a:2f:d9:f2:69:3b:28:8f:c3:7e:
                    ed:79:fd:dd:c8:2d:8d:c8:08:5f:d1:62:66:28:67:
                    6d:0c:95:96:1b:42:42:5f:53:78:08:42:83:30:27:
                    d2:3a:ff:c5:7d:95:30:f9:7e:45:bc:cb:62:20:04:
                    0a:cd:9d:fa:a9:89:ff:91:42:99:02:a6:b3:1d:a8:
                    68:c9:a4:24:51:bc:ea:01:c0:02:04:eb:70:f5:73:
                    06:f7:1e:9e:95:a3:19:75:96:3d:c9:ad:ef:0b:30:
                    af:a8:a6:87:5c:b2:36:42:68:1d:22:27:72:9b:da:
                    dc:07
                Exponent: 65537 (0x10001)
        X509v3 extensions:
            X509v3 Basic Constraints: 
                CA:TRUE
    Signature Algorithm: sha1WithRSAEncryption
         bb:dd:e7:71:12:d8:bd:77:fc:66:47:f2:f2:86:0b:c7:25:3f:
         57:56:8b:db:63:b6:78:1b:90:fd:34:34:41:bd:10:48:2a:9c:
         5a:04:b0:6e:82:e8:2e:39:88:9b:b2:44:67:9e:08:34:c7:8e:
         91:b0:37:a2:33:47:85:5b:a4:cf:11:f2:f4:31:68:99:08:3c:
         85:56:d6:1a:26:0b:ff:ec:b9:5e:ff:93:23:9e:2a:19:99:84:
         0d:d0:2a:be:81:5a:a5:1a:e9:cf:6d:70:31:1d:7f:81:d2:6c:
         10:53:b4:1b:a9:56:5a:19:3f:58:b0:3b:fd:20:cb:f2:57:d7:
         30:5a:77:2e:76:27:a2:3c:84:4f:d1:76:f0:29:da:33:c3:59:
         07:52:63:6a:a9:58:8d:8a:c9:f5:06:85:e1:01:db:0a:b1:77:
         9f:81:4b:f9:84:2f:ec:ba:44:c0:b0:21:34:06:f7:5d:30:93:
         88:50:12:ae:ac:c4:5e:fc:2b:bf:0a:e1:b7:c9:4a:18:a2:f2:
         51:30:bc:f1:84:de:c5:19:d5:04:d7:66:78:4a:ae:b9:23:f6:
         5e:1a:47:01:a8:8d:c0:f1:c7:6e:20:01:9d:c3:bd:54:6d:b3:
         28:cf:c3:da:88:d4:9f:4b:80:29:b4:8c:f5:2e:e4:8f:db:89:
         ea:26:9c:c4
-----BEGIN CERTIFICATE-----
MIIDfzCCAmegAwIBAgIFEwIYhBgwDQYJKoZIhvcNAQEFBQAweDEOMAwGA1UEAwwF
ZjUtTDIxEDAOBgNVBAgMB2JlaWppbmcxCzAJBgNVBAYTAkNOMScwJQYJKoZIhvcN
AQkBFhh6b25nemhhb3dlaS0yMDAyQDE2My5jb20xDjAMBgNVBAoMBWY1LUwyMQ4w
DAYDVQQLDAVwZC1MMjAeFw0xODA4MjQwNzI3MDhaFw0xOTA4MjQwNzI3MDhaMHgx
DjAMBgNVBAMMBWY1LUwzMRAwDgYDVQQIDAdiZWlqaW5nMQswCQYDVQQGEwJDTjEn
MCUGCSqGSIb3DQEJARYYem9uZ3poYW93ZWktMjAwMkAxNjMuY29tMQ4wDAYDVQQK
DAVmNS1MMzEOMAwGA1UECwwFcGQtTDMwggEiMA0GCSqGSIb3DQEBAQUAA4IBDwAw
ggEKAoIBAQDUvD1K3reGqymQ11cq3Xt3p8ZDE7KxlSWnh9M/0O+itGP+7+f7jA+X
Q1yrhjKVjv/GqO2+Leyd9GvesCHUh/RrW1wIIJmjowxAcbUdTeItNvxCO1o9Si3u
ZaEkbAIPuNW4c0MIC5V3J4ensK/V12jyXCATCVKeetpFKmhD0sibHvjkTh+2pR/+
LuaeOi/Z8mk7KI/Dfu15/d3ILY3ICF/RYmYoZ20MlZYbQkJfU3gIQoMwJ9I6/8V9
lTD5fkW8y2IgBArNnfqpif+RQpkCprMdqGjJpCRRvOoBwAIE63D1cwb3Hp6Voxl1
lj3Jre8LMK+opodcsjZCaB0iJ3Kb2twHAgMBAAGjEDAOMAwGA1UdEwQFMAMBAf8w
DQYJKoZIhvcNAQEFBQADggEBALvd53ES2L13/GZH8vKGC8clP1dWi9tjtngbkP00
NEG9EEgqnFoEsG6C6C45iJuyRGeeCDTHjpGwN6IzR4VbpM8R8vQxaJkIPIVW1hom
C//suV7/kyOeKhmZhA3QKr6BWqUa6c9tcDEdf4HSbBBTtBupVloZP1iwO/0gy/JX
1zBady52J6I8hE/RdvAp2jPDWQdSY2qpWI2KyfUGheEB2wqxd5+BS/mEL+y6RMCw
ITQG910wk4hQEq6sxF78K78K4bfJShii8lEwvPGE3sUZ1QTXZnhKrrkj9l4aRwGo
jcDxx24gAZ3DvVRtsyjPw9qI1J9LgCm0jPUu5I/bieomnMQ=
-----END CERTIFICATE-----
