Certificate:
    Data:
        Version: 3 (0x2)
        Serial Number: 81639539737 (0x1302188419)
    Signature Algorithm: sha1WithRSAEncryption
        Issuer: CN=f5-L3, ST=beijing, C=CN/emailAddress=zongzhaowei-2002@163.com, O=f5-L3, OU=pd-L3
        Validity
            Not Before: Aug 24 07:27:10 2018 GMT
            Not After : Aug 24 07:27:10 2019 GMT
        Subject: CN=localhost, ST=beijing, C=CN/emailAddress=zongzhaowei-2002@163.com, O=f5-local, OU=pd-local
        Subject Public Key Info:
            Public Key Algorithm: rsaEncryption
                Public-Key: (2048 bit)
                Modulus:
                    00:d3:91:7d:4d:4c:46:5a:c1:41:0d:cc:71:03:60:
                    76:7c:68:0c:c1:25:9f:50:2d:53:5e:82:03:89:80:
                    49:6d:90:49:8b:4a:dd:f9:24:2c:e3:54:73:21:51:
                    7f:b0:29:60:d6:d2:3b:43:81:56:15:5a:de:4e:47:
                    ae:35:74:82:ce:12:39:da:f4:60:1f:16:86:ae:5b:
                    14:f5:fb:aa:a9:17:fd:39:a8:55:38:f8:68:9d:20:
                    f2:48:f9:71:ac:fb:ca:54:04:99:d9:41:3d:90:a4:
                    8c:15:e8:ad:0b:cc:06:ce:07:c7:b7:da:a1:e8:d6:
                    4d:a0:d8:3f:33:3e:d1:4a:88:c8:da:c9:dc:3a:41:
                    18:47:c0:3b:ee:8a:46:dd:9c:ca:a2:53:44:5a:60:
                    a2:a5:41:6c:ed:a3:75:8c:03:c1:62:60:51:f2:2f:
                    df:38:a2:6c:60:58:9f:b0:c5:d3:1c:e0:0c:80:62:
                    1e:bb:9d:64:a6:f6:c3:b9:cf:81:b4:02:f8:93:22:
                    ad:07:7e:fc:cc:91:ab:ce:2a:f8:aa:7c:98:fb:06:
                    26:e3:8c:74:94:95:1f:26:1e:60:6f:9e:38:43:fb:
                    0a:77:c5:34:40:bb:fc:96:e9:ee:a0:5b:92:e0:9f:
                    d3:b3:1a:8f:61:18:96:75:9e:77:20:fb:4b:60:2b:
                    25:ad
                Exponent: 65537 (0x10001)
        X509v3 extensions:
            X509v3 Basic Constraints: 
                CA:FALSE
    Signature Algorithm: sha1WithRSAEncryption
         b6:c1:d7:91:98:1d:69:fe:0d:c4:d3:e4:d3:4d:e2:e7:97:cb:
         c3:86:95:9c:8e:ac:61:e1:28:f0:8b:6c:37:48:86:ee:7f:d7:
         87:7f:bd:62:02:0f:5f:b0:ec:04:77:4b:9d:07:23:77:98:43:
         a6:50:7d:2f:c8:86:fb:f6:2d:b2:74:45:07:47:c5:21:d7:db:
         52:27:3a:5b:25:b3:48:1b:fd:c7:e8:9c:b1:9b:1a:c5:c2:2a:
         de:54:6c:fa:3d:fe:c0:36:64:55:3b:12:b7:49:7c:8c:4f:4f:
         35:31:1e:c1:d3:e2:a5:4a:00:56:37:b0:fc:d2:74:6b:fb:92:
         87:a1:58:77:5d:03:61:35:99:85:8e:d3:03:59:74:08:d6:99:
         f5:7b:0a:6b:68:93:d4:07:6e:b7:ba:de:fd:2d:96:b1:33:cd:
         f8:46:04:c0:b0:67:ca:02:2f:67:7f:65:8b:73:40:5c:ce:ac:
         c6:00:ef:7a:51:8c:f0:25:0d:d1:2c:6b:a0:c5:41:62:67:b8:
         cc:95:15:22:00:f9:db:2f:04:8f:ab:a2:a1:d0:ca:32:5f:72:
         62:90:5b:ff:f0:ef:b6:6a:16:6c:db:49:15:5a:93:2e:b9:eb:
         d6:6e:49:9e:04:e5:5f:8f:7a:20:f8:92:1e:ff:32:d7:f0:b3:
         f9:42:8c:83
-----BEGIN CERTIFICATE-----
MIIDhzCCAm+gAwIBAgIFEwIYhBkwDQYJKoZIhvcNAQEFBQAweDEOMAwGA1UEAwwF
ZjUtTDMxEDAOBgNVBAgMB2JlaWppbmcxCzAJBgNVBAYTAkNOMScwJQYJKoZIhvcN
AQkBFhh6b25nemhhb3dlaS0yMDAyQDE2My5jb20xDjAMBgNVBAoMBWY1LUwzMQ4w
DAYDVQQLDAVwZC1MMzAeFw0xODA4MjQwNzI3MTBaFw0xOTA4MjQwNzI3MTBaMIGC
MRIwEAYDVQQDDAlsb2NhbGhvc3QxEDAOBgNVBAgMB2JlaWppbmcxCzAJBgNVBAYT
AkNOMScwJQYJKoZIhvcNAQkBFhh6b25nemhhb3dlaS0yMDAyQDE2My5jb20xETAP
BgNVBAoMCGY1LWxvY2FsMREwDwYDVQQLDAhwZC1sb2NhbDCCASIwDQYJKoZIhvcN
AQEBBQADggEPADCCAQoCggEBANORfU1MRlrBQQ3McQNgdnxoDMEln1AtU16CA4mA
SW2QSYtK3fkkLONUcyFRf7ApYNbSO0OBVhVa3k5HrjV0gs4SOdr0YB8Whq5bFPX7
qqkX/TmoVTj4aJ0g8kj5caz7ylQEmdlBPZCkjBXorQvMBs4Hx7faoejWTaDYPzM+
0UqIyNrJ3DpBGEfAO+6KRt2cyqJTRFpgoqVBbO2jdYwDwWJgUfIv3ziibGBYn7DF
0xzgDIBiHrudZKb2w7nPgbQC+JMirQd+/MyRq84q+Kp8mPsGJuOMdJSVHyYeYG+e
OEP7CnfFNEC7/Jbp7qBbkuCf07Maj2EYlnWedyD7S2ArJa0CAwEAAaMNMAswCQYD
VR0TBAIwADANBgkqhkiG9w0BAQUFAAOCAQEAtsHXkZgdaf4NxNPk003i55fLw4aV
nI6sYeEo8ItsN0iG7n/Xh3+9YgIPX7DsBHdLnQcjd5hDplB9L8iG+/YtsnRFB0fF
IdfbUic6WyWzSBv9x+icsZsaxcIq3lRs+j3+wDZkVTsSt0l8jE9PNTEewdPipUoA
Vjew/NJ0a/uSh6FYd10DYTWZhY7TA1l0CNaZ9XsKa2iT1Adut7re/S2WsTPN+EYE
wLBnygIvZ39li3NAXM6sxgDvelGM8CUN0SxroMVBYme4zJUVIgD52y8Ej6uiodDK
Ml9yYpBb//DvtmoWbNtJFVqTLrnr1m5JngTlX496IPiSHv8y1/Cz+UKMgw==
-----END CERTIFICATE-----
