Certificate:
    Data:
        Version: 3 (0x2)
        Serial Number: 81639539738 (0x130218841a)
    Signature Algorithm: sha1WithRSAEncryption
        Issuer: CN=f5-L3, ST=beijing, C=CN/emailAddress=zongzhaowei-2002@163.com, O=f5-L3, OU=pd-L3
        Validity
            Not Before: Aug 24 07:27:16 2018 GMT
            Not After : Aug 24 07:27:16 2019 GMT
        Subject: CN=localhost.s3, ST=beijing, C=CN/emailAddress=zongzhaowei-2002@163.com, O=f5-local.s3, OU=pd-local.s3
        Subject Public Key Info:
            Public Key Algorithm: rsaEncryption
                Public-Key: (2048 bit)
                Modulus:
                    00:af:70:ff:0b:77:fc:91:8e:6d:43:2a:35:83:da:
                    46:45:cc:62:03:c9:82:75:86:33:8c:1c:7f:ad:c3:
                    36:ce:87:56:f5:e8:a6:e4:f9:20:6f:59:5d:91:97:
                    92:aa:d5:ac:b1:d2:2e:dd:ba:25:34:3a:d3:f7:f1:
                    04:d3:34:62:3a:14:cf:d7:6c:bc:dd:48:2d:51:98:
                    77:c7:ec:dc:dc:84:ae:fa:99:12:8a:48:41:dc:50:
                    40:ce:4c:3e:c0:8d:5c:37:89:b1:ed:16:82:dc:32:
                    00:0b:7c:3d:c8:58:27:72:28:ac:5b:1e:dc:c7:3a:
                    47:c2:b2:77:0f:3a:60:27:8d:e2:56:87:65:3b:47:
                    c5:6d:c2:c2:7d:5a:6a:69:2e:3b:50:ad:73:22:d6:
                    28:93:73:58:5d:85:33:12:0e:d2:34:9e:9a:35:d2:
                    fb:f8:fc:49:1c:bd:46:ae:7a:14:cf:e6:b6:d2:b4:
                    d1:63:2a:9b:60:86:1a:9e:40:22:9f:f4:1d:15:13:
                    69:55:8c:45:ad:d8:d9:59:01:d8:93:85:1c:4e:22:
                    3c:37:1e:07:98:a4:da:0f:1e:36:86:53:e9:d2:8b:
                    6f:db:91:41:3d:bb:f3:06:98:70:3c:16:21:08:fa:
                    ea:10:e6:2f:02:1a:1c:b6:30:5e:24:05:1e:00:5c:
                    a0:e9
                Exponent: 65537 (0x10001)
        X509v3 extensions:
            X509v3 Basic Constraints: 
                CA:FALSE
    Signature Algorithm: sha1WithRSAEncryption
         c4:07:4e:e1:3a:e9:41:9f:d2:e9:67:f3:f1:e1:f2:95:ba:fb:
         fe:13:ab:58:71:39:5c:d6:aa:df:57:68:e3:81:48:a5:4a:68:
         86:37:08:e5:ac:9c:83:eb:b5:08:c9:33:df:a1:94:60:b2:b4:
         ae:30:81:b1:28:19:d9:8a:8e:52:d7:78:a6:bd:ab:cc:d9:f4:
         e1:44:16:3c:ce:8e:06:b6:a3:f9:b3:dc:2f:55:b6:4d:25:6b:
         bf:a6:64:43:61:9c:63:ea:e8:80:92:65:72:aa:ce:43:95:c3:
         ba:46:5c:10:1a:99:03:a9:43:c7:f5:4c:81:31:0f:41:21:31:
         ec:9b:c9:61:27:de:2f:99:fb:a7:cc:0d:8a:6b:81:07:a2:65:
         06:db:28:00:c4:fe:ab:eb:3f:88:53:81:73:95:f0:a2:0a:5f:
         3e:16:82:17:74:1a:c9:7d:2a:94:9e:70:35:7c:58:d0:9f:ee:
         20:02:3e:0e:26:57:6a:11:c2:69:b6:62:35:9d:ed:53:47:49:
         6c:4d:03:fd:b1:58:88:1f:f5:90:e1:d1:28:02:87:be:ef:45:
         e9:06:32:33:70:51:13:58:a6:35:e0:ac:95:2d:5d:4c:26:2a:
         77:af:81:30:f5:0b:13:4b:0f:97:d6:6d:8b:e1:4e:47:e8:fa:
         04:6f:70:cc
-----BEGIN CERTIFICATE-----
MIIDkDCCAnigAwIBAgIFEwIYhBowDQYJKoZIhvcNAQEFBQAweDEOMAwGA1UEAwwF
ZjUtTDMxEDAOBgNVBAgMB2JlaWppbmcxCzAJBgNVBAYTAkNOMScwJQYJKoZIhvcN
AQkBFhh6b25nemhhb3dlaS0yMDAyQDE2My5jb20xDjAMBgNVBAoMBWY1LUwzMQ4w
DAYDVQQLDAVwZC1MMzAeFw0xODA4MjQwNzI3MTZaFw0xOTA4MjQwNzI3MTZaMIGL
MRUwEwYDVQQDDAxsb2NhbGhvc3QuczMxEDAOBgNVBAgMB2JlaWppbmcxCzAJBgNV
BAYTAkNOMScwJQYJKoZIhvcNAQkBFhh6b25nemhhb3dlaS0yMDAyQDE2My5jb20x
FDASBgNVBAoMC2Y1LWxvY2FsLnMzMRQwEgYDVQQLDAtwZC1sb2NhbC5zMzCCASIw
DQYJKoZIhvcNAQEBBQADggEPADCCAQoCggEBAK9w/wt3/JGObUMqNYPaRkXMYgPJ
gnWGM4wcf63DNs6HVvXopuT5IG9ZXZGXkqrVrLHSLt26JTQ60/fxBNM0YjoUz9ds
vN1ILVGYd8fs3NyErvqZEopIQdxQQM5MPsCNXDeJse0WgtwyAAt8PchYJ3IorFse
3Mc6R8Kydw86YCeN4laHZTtHxW3Cwn1aamkuO1CtcyLWKJNzWF2FMxIO0jSemjXS
+/j8SRy9Rq56FM/mttK00WMqm2CGGp5AIp/0HRUTaVWMRa3Y2VkB2JOFHE4iPDce
B5ik2g8eNoZT6dKLb9uRQT278waYcDwWIQj66hDmLwIaHLYwXiQFHgBcoOkCAwEA
AaMNMAswCQYDVR0TBAIwADANBgkqhkiG9w0BAQUFAAOCAQEAxAdO4TrpQZ/S6Wfz
8eHylbr7/hOrWHE5XNaq31do44FIpUpohjcI5aycg+u1CMkz36GUYLK0rjCBsSgZ
2YqOUtd4pr2rzNn04UQWPM6OBraj+bPcL1W2TSVrv6ZkQ2GcY+rogJJlcqrOQ5XD
ukZcEBqZA6lDx/VMgTEPQSEx7JvJYSfeL5n7p8wNimuBB6JlBtsoAMT+q+s/iFOB
c5XwogpfPhaCF3QayX0qlJ5wNXxY0J/uIAI+DiZXahHCabZiNZ3tU0dJbE0D/bFY
iB/1kOHRKAKHvu9F6QYyM3BRE1imNeCslS1dTCYqd6+BMPULE0sPl9Zti+FOR+j6
BG9wzA==
-----END CERTIFICATE-----
