Certificate:
    Data:
        Version: 3 (0x2)
        Serial Number: 279283184983 (0x4106933557)
    Signature Algorithm: sha1WithRSAEncryption
        Issuer: CN=Zong CA, ST=Beijing, C=CN/emailAddress=a.zong@f5.com, O=Zong Root Certification Authority
        Validity
            Not Before: Aug 23 09:50:01 2018 GMT
            Not After : Aug 23 09:50:01 2019 GMT
        Subject: CN=localhost, ST=beijing, C=CN/emailAddress=zongzhaowei-2002@163.com, O=f5, OU=pd-21
        Subject Public Key Info:
            Public Key Algorithm: rsaEncryption
                Public-Key: (2048 bit)
                Modulus:
                    00:bf:93:ba:48:4c:ac:79:e0:72:75:bf:05:6a:b4:
                    37:05:db:dd:a7:28:c4:8e:f4:e6:0c:51:de:f7:e0:
                    23:64:4b:e7:82:a4:f9:d5:0a:8e:65:4f:f4:bb:70:
                    d9:b7:81:f6:e1:38:d8:46:9d:98:b4:1c:0b:ea:46:
                    a4:c8:5d:70:ee:c2:c9:19:af:d0:c7:4a:9d:75:55:
                    06:a3:36:e5:fc:aa:7e:94:98:95:a6:57:f5:60:bd:
                    68:f6:18:8f:6a:c3:a0:fe:93:bd:d2:22:0a:09:49:
                    e4:c3:31:a4:39:78:a2:8c:17:04:3c:95:74:d2:28:
                    e1:e1:95:f5:57:33:80:85:6c:13:cc:12:20:c9:90:
                    8c:3b:e2:58:46:86:5c:0c:43:e2:91:6d:e7:ae:0a:
                    01:80:d3:09:c4:a5:91:43:6d:de:7c:60:1f:d3:29:
                    55:a9:40:f9:b8:79:47:af:a1:74:a6:0c:8c:99:a8:
                    64:da:ab:80:42:e3:aa:bc:e1:10:a5:ff:63:01:09:
                    01:5e:87:f1:f6:18:8e:b2:5c:d4:bf:5a:bd:55:03:
                    ea:47:11:b1:04:1f:4a:ad:de:7f:46:a4:3c:8f:cc:
                    fd:36:14:26:49:8a:51:3e:79:db:d2:b8:e4:ee:f6:
                    52:80:a8:19:fa:a1:1f:2a:96:77:3d:e5:34:e6:f9:
                    f2:eb
                Exponent: 65537 (0x10001)
        X509v3 extensions:
            X509v3 Basic Constraints: 
                CA:FALSE
    Signature Algorithm: sha1WithRSAEncryption
         31:e4:f5:3e:24:bb:fd:bd:85:8b:53:54:75:c2:72:9d:5b:9a:
         c8:37:ad:c8:07:f3:c8:bf:d6:42:42:80:ca:f8:63:22:71:dc:
         57:cd:64:2d:ce:6a:3f:ba:e5:7e:fe:da:9b:04:b5:48:5c:bc:
         82:2c:1d:18:13:be:27:e7:bf:13:3c:69:41:19:0f:c4:ac:be:
         35:e6:3d:2b:cb:3f:5c:30:8e:f9:7b:48:17:9c:42:6c:cc:10:
         28:48:10:03:58:e3:29:3e:ed:5a:44:cb:8b:f4:15:83:71:d8:
         48:9f:86:d3:e3:97:ab:db:8e:56:c2:5e:fa:7c:6a:a5:0d:7a:
         66:18:01:9b:e6:79:52:43:7b:55:5c:77:e7:c1:70:ad:44:f0:
         1b:21:49:bf:62:36:f8:34:12:78:41:cf:16:17:d5:a1:ff:77:
         82:bf:91:00:81:de:d5:59:84:8f:d9:af:c4:b3:45:85:6b:33:
         64:fc:6d:51:56:5d:fc:f0:c2:2c:09:9e:0f:65:8b:b3:13:86:
         d0:a1:a3:6a:82:3a:c6:f2:f5:57:8b:2a:1c:dc:55:5c:57:0d:
         74:a2:ad:c0:ff:43:f7:75:e4:0b:93:a3:bc:75:89:5f:c3:44:
         88:0d:0f:f1:09:8f:4a:27:6a:1f:6e:da:de:66:88:d0:44:ee:
         24:5e:d1:c9
-----BEGIN CERTIFICATE-----
MIIDgDCCAmigAwIBAgIFQQaTNVcwDQYJKoZIhvcNAQEFBQAwezEQMA4GA1UEAwwH
Wm9uZyBDQTEQMA4GA1UECAwHQmVpamluZzELMAkGA1UEBhMCQ04xHDAaBgkqhkiG
9w0BCQEWDWEuem9uZ0BmNS5jb20xKjAoBgNVBAoMIVpvbmcgUm9vdCBDZXJ0aWZp
Y2F0aW9uIEF1dGhvcml0eTAeFw0xODA4MjMwOTUwMDFaFw0xOTA4MjMwOTUwMDFa
MHkxEjAQBgNVBAMMCWxvY2FsaG9zdDEQMA4GA1UECAwHYmVpamluZzELMAkGA1UE
BhMCQ04xJzAlBgkqhkiG9w0BCQEWGHpvbmd6aGFvd2VpLTIwMDJAMTYzLmNvbTEL
MAkGA1UECgwCZjUxDjAMBgNVBAsMBXBkLTIxMIIBIjANBgkqhkiG9w0BAQEFAAOC
AQ8AMIIBCgKCAQEAv5O6SEyseeBydb8FarQ3BdvdpyjEjvTmDFHe9+AjZEvngqT5
1QqOZU/0u3DZt4H24TjYRp2YtBwL6kakyF1w7sLJGa/Qx0qddVUGozbl/Kp+lJiV
plf1YL1o9hiPasOg/pO90iIKCUnkwzGkOXiijBcEPJV00ijh4ZX1VzOAhWwTzBIg
yZCMO+JYRoZcDEPikW3nrgoBgNMJxKWRQ23efGAf0ylVqUD5uHlHr6F0pgyMmahk
2quAQuOqvOEQpf9jAQkBXofx9hiOslzUv1q9VQPqRxGxBB9Krd5/RqQ8j8z9NhQm
SYpRPnnb0rjk7vZSgKgZ+qEfKpZ3PeU05vny6wIDAQABow0wCzAJBgNVHRMEAjAA
MA0GCSqGSIb3DQEBBQUAA4IBAQAx5PU+JLv9vYWLU1R1wnKdW5rIN63IB/PIv9ZC
QoDK+GMicdxXzWQtzmo/uuV+/tqbBLVIXLyCLB0YE74n578TPGlBGQ/ErL415j0r
yz9cMI75e0gXnEJszBAoSBADWOMpPu1aRMuL9BWDcdhIn4bT45er245Wwl76fGql
DXpmGAGb5nlSQ3tVXHfnwXCtRPAbIUm/Yjb4NBJ4Qc8WF9Wh/3eCv5EAgd7VWYSP
2a/Es0WFazNk/G1RVl388MIsCZ4PZYuzE4bQoaNqgjrG8vVXiyoc3FVcVw10oq3A
/0P3deQLk6O8dYlfw0SIDQ/xCY9KJ2ofbtreZojQRO4kXtHJ
-----END CERTIFICATE-----
